target datalayout = "e-m:e-p270:32:32-p271:32:32-p272:64:64-i64:64-i128:128-f80:128-n8:16:32:64-S128"
target triple = "x86_64-pc-linux-gnu"

%struct.PJconsts = type { ptr, ptr, ptr, ptr, ptr, ptr, ptr, ptr, ptr, ptr, ptr, ptr, i32, ptr, ptr, ptr, ptr, ptr, ptr, ptr, ptr, double, double, double, double, double, double, double, double, double, double, double, double, double, double, double, double, double, double, double, double, double, double, i32, i32, i32, i32, i32, i32, i32, i32, i32, i32, i32, ptr, ptr, ptr, ptr, ptr, ptr, double, double, double, double, double, double, double, double, double, double, double, i32, [7 x double], i32, ptr, ptr, double, double, i32, [4 x i8], %"class.std::shared_ptr", i8, double, i8, %"class.std::__cxx11::basic_string", %"class.std::__cxx11::basic_string", %"class.std::__cxx11::basic_string", i8, %"class.std::vector", i32, %"class.std::vector.3", i32, i8, i8, i8, ptr }
%"class.std::shared_ptr" = type { %"class.std::__shared_ptr" }
%"class.std::__shared_ptr" = type { ptr, %"class.std::__shared_count" }
%"class.std::__shared_count" = type { ptr }
%"class.std::__cxx11::basic_string" = type { %"struct.std::__cxx11::basic_string<char>::_Alloc_hider", i64, %union.anon }
%"struct.std::__cxx11::basic_string<char>::_Alloc_hider" = type { ptr }
%union.anon = type { i64, [8 x i8] }
%"class.std::vector" = type { %"struct.std::_Vector_base" }
%"struct.std::_Vector_base" = type { %"struct.std::_Vector_base<osgeo::proj::operation::GridDescription, std::allocator<osgeo::proj::operation::GridDescription>>::_Vector_impl" }
%"struct.std::_Vector_base<osgeo::proj::operation::GridDescription, std::allocator<osgeo::proj::operation::GridDescription>>::_Vector_impl" = type { %"struct.std::_Vector_base<osgeo::proj::operation::GridDescription, std::allocator<osgeo::proj::operation::GridDescription>>::_Vector_impl_data" }
%"struct.std::_Vector_base<osgeo::proj::operation::GridDescription, std::allocator<osgeo::proj::operation::GridDescription>>::_Vector_impl_data" = type { ptr, ptr, ptr }
%"class.std::vector.3" = type { %"struct.std::_Vector_base.4" }
%"struct.std::_Vector_base.4" = type { %"struct.std::_Vector_base<PJCoordOperation, std::allocator<PJCoordOperation>>::_Vector_impl" }
%"struct.std::_Vector_base<PJCoordOperation, std::allocator<PJCoordOperation>>::_Vector_impl" = type { %"struct.std::_Vector_base<PJCoordOperation, std::allocator<PJCoordOperation>>::_Vector_impl_data" }
%"struct.std::_Vector_base<PJCoordOperation, std::allocator<PJCoordOperation>>::_Vector_impl_data" = type { ptr, ptr, ptr }
%"struct.(anonymous namespace)::pj_fouc_s_data" = type { double, double }
%struct.PJ_LP = type { double, double }
%struct.PJ_XY = type { double, double }

; Function Attrs: mustprogress uwtable
define internal { double, double } @_ZL16fouc_s_s_inverse5PJ_XYP8PJconsts(double %0, double %1, ptr noundef %2) #0 {
  %4 = alloca %struct.PJ_LP, align 8
  %5 = alloca %struct.PJ_XY, align 8
  %6 = alloca ptr, align 8
  %7 = alloca ptr, align 8
  %8 = alloca i32, align 4
  %9 = alloca double, align 8
  %10 = alloca i32, align 4
  %11 = alloca double, align 8
  %12 = getelementptr inbounds nuw { double, double }, ptr %5, i32 0, i32 0
  store double %0, ptr %12, align 8
  %13 = getelementptr inbounds nuw { double, double }, ptr %5, i32 0, i32 1
  store double %1, ptr %13, align 8
  store ptr %2, ptr %6, align 8, !tbaa !3
  call void @llvm.memset.p0.i64(ptr align 8 %4, i8 0, i64 16, i1 false)
  call void @llvm.lifetime.start.p0(i64 8, ptr %7) #8
  %14 = load ptr, ptr %6, align 8, !tbaa !3
  %15 = getelementptr inbounds nuw %struct.PJconsts, ptr %14, i32 0, i32 11
  %16 = load ptr, ptr %15, align 8, !tbaa !43
  store ptr %16, ptr %7, align 8, !tbaa !41
  call void @llvm.lifetime.start.p0(i64 4, ptr %8) #8
  %17 = load ptr, ptr %7, align 8, !tbaa !41
  %18 = getelementptr inbounds nuw %"struct.(anonymous namespace)::pj_fouc_s_data", ptr %17, i32 0, i32 0
  %19 = load double, ptr %18, align 8, !tbaa !47
  %20 = fcmp une double %19, 0.000000e+00
  br i1 %20, label %21, label %81

21:                                               ; preds = %3
  %22 = getelementptr inbounds nuw %struct.PJ_XY, ptr %5, i32 0, i32 1
  %23 = load double, ptr %22, align 8, !tbaa !53
  %24 = getelementptr inbounds nuw %struct.PJ_LP, ptr %4, i32 0, i32 1
  store double %23, ptr %24, align 8, !tbaa !55
  store i32 10, ptr %8, align 4, !tbaa !57
  br label %25

25:                                               ; preds = %68, %21
  %26 = load i32, ptr %8, align 4, !tbaa !57
  %27 = icmp ne i32 %26, 0
  br i1 %27, label %28, label %71

28:                                               ; preds = %25
  call void @llvm.lifetime.start.p0(i64 8, ptr %9) #8
  %29 = load ptr, ptr %7, align 8, !tbaa !41
  %30 = getelementptr inbounds nuw %"struct.(anonymous namespace)::pj_fouc_s_data", ptr %29, i32 0, i32 0
  %31 = load double, ptr %30, align 8, !tbaa !47
  %32 = getelementptr inbounds nuw %struct.PJ_LP, ptr %4, i32 0, i32 1
  %33 = load double, ptr %32, align 8, !tbaa !55
  %34 = load ptr, ptr %7, align 8, !tbaa !41
  %35 = getelementptr inbounds nuw %"struct.(anonymous namespace)::pj_fouc_s_data", ptr %34, i32 0, i32 1
  %36 = load double, ptr %35, align 8, !tbaa !49
  %37 = getelementptr inbounds nuw %struct.PJ_LP, ptr %4, i32 0, i32 1
  %38 = load double, ptr %37, align 8, !tbaa !55
  %39 = call double @sin(double noundef %38) #8, !tbaa !57
  %40 = fmul double %36, %39
  %41 = call double @llvm.fmuladd.f64(double %31, double %33, double %40)
  %42 = getelementptr inbounds nuw %struct.PJ_XY, ptr %5, i32 0, i32 1
  %43 = load double, ptr %42, align 8, !tbaa !53
  %44 = fsub double %41, %43
  %45 = load ptr, ptr %7, align 8, !tbaa !41
  %46 = getelementptr inbounds nuw %"struct.(anonymous namespace)::pj_fouc_s_data", ptr %45, i32 0, i32 0
  %47 = load double, ptr %46, align 8, !tbaa !47
  %48 = load ptr, ptr %7, align 8, !tbaa !41
  %49 = getelementptr inbounds nuw %"struct.(anonymous namespace)::pj_fouc_s_data", ptr %48, i32 0, i32 1
  %50 = load double, ptr %49, align 8, !tbaa !49
  %51 = getelementptr inbounds nuw %struct.PJ_LP, ptr %4, i32 0, i32 1
  %52 = load double, ptr %51, align 8, !tbaa !55
  %53 = call double @cos(double noundef %52) #8, !tbaa !57
  %54 = call double @llvm.fmuladd.f64(double %50, double %53, double %47)
  %55 = fdiv double %44, %54
  store double %55, ptr %9, align 8, !tbaa !58
  %56 = load double, ptr %9, align 8, !tbaa !58
  %57 = getelementptr inbounds nuw %struct.PJ_LP, ptr %4, i32 0, i32 1
  %58 = load double, ptr %57, align 8, !tbaa !55
  %59 = fsub double %58, %56
  store double %59, ptr %57, align 8, !tbaa !55
  %60 = load double, ptr %9, align 8, !tbaa !58
  %61 = call double @llvm.fabs.f64(double %60)
  %62 = fcmp olt double %61, 0x3E7AD7F29ABCAF48
  br i1 %62, label %63, label %64

63:                                               ; preds = %28
  store i32 2, ptr %10, align 4
  br label %65

64:                                               ; preds = %28
  store i32 0, ptr %10, align 4
  br label %65

65:                                               ; preds = %64, %63
  call void @llvm.lifetime.end.p0(i64 8, ptr %9) #8
  %66 = load i32, ptr %10, align 4
  switch i32 %66, label %108 [
    i32 0, label %67
    i32 2, label %71
  ]

67:                                               ; preds = %65
  br label %68

68:                                               ; preds = %67
  %69 = load i32, ptr %8, align 4, !tbaa !57
  %70 = add nsw i32 %69, -1
  store i32 %70, ptr %8, align 4, !tbaa !57
  br label %25, !llvm.loop !59

71:                                               ; preds = %65, %25
  %72 = load i32, ptr %8, align 4, !tbaa !57
  %73 = icmp ne i32 %72, 0
  br i1 %73, label %80, label %74

74:                                               ; preds = %71
  %75 = getelementptr inbounds nuw %struct.PJ_XY, ptr %5, i32 0, i32 1
  %76 = load double, ptr %75, align 8, !tbaa !53
  %77 = fcmp olt double %76, 0.000000e+00
  %78 = select i1 %77, double 0xBFF921FB54442D18, double 0x3FF921FB54442D18
  %79 = getelementptr inbounds nuw %struct.PJ_LP, ptr %4, i32 0, i32 1
  store double %78, ptr %79, align 8, !tbaa !55
  br label %80

80:                                               ; preds = %74, %71
  br label %89

81:                                               ; preds = %3
  %82 = load ptr, ptr %6, align 8, !tbaa !3
  %83 = getelementptr inbounds nuw %struct.PJconsts, ptr %82, i32 0, i32 0
  %84 = load ptr, ptr %83, align 8, !tbaa !44
  %85 = getelementptr inbounds nuw %struct.PJ_XY, ptr %5, i32 0, i32 1
  %86 = load double, ptr %85, align 8, !tbaa !53
  %87 = call noundef double @_Z5aasinP6pj_ctxd(ptr noundef %84, double noundef %86)
  %88 = getelementptr inbounds nuw %struct.PJ_LP, ptr %4, i32 0, i32 1
  store double %87, ptr %88, align 8, !tbaa !55
  br label %89

89:                                               ; preds = %81, %80
  call void @llvm.lifetime.start.p0(i64 8, ptr %11) #8
  %90 = getelementptr inbounds nuw %struct.PJ_LP, ptr %4, i32 0, i32 1
  %91 = load double, ptr %90, align 8, !tbaa !55
  %92 = call double @cos(double noundef %91) #8, !tbaa !57
  store double %92, ptr %11, align 8, !tbaa !58
  %93 = getelementptr inbounds nuw %struct.PJ_XY, ptr %5, i32 0, i32 0
  %94 = load double, ptr %93, align 8, !tbaa !61
  %95 = load ptr, ptr %7, align 8, !tbaa !41
  %96 = getelementptr inbounds nuw %"struct.(anonymous namespace)::pj_fouc_s_data", ptr %95, i32 0, i32 0
  %97 = load double, ptr %96, align 8, !tbaa !47
  %98 = load ptr, ptr %7, align 8, !tbaa !41
  %99 = getelementptr inbounds nuw %"struct.(anonymous namespace)::pj_fouc_s_data", ptr %98, i32 0, i32 1
  %100 = load double, ptr %99, align 8, !tbaa !49
  %101 = load double, ptr %11, align 8, !tbaa !58
  %102 = call double @llvm.fmuladd.f64(double %100, double %101, double %97)
  %103 = fmul double %94, %102
  %104 = load double, ptr %11, align 8, !tbaa !58
  %105 = fdiv double %103, %104
  %106 = getelementptr inbounds nuw %struct.PJ_LP, ptr %4, i32 0, i32 0
  store double %105, ptr %106, align 8, !tbaa !62
  store i32 1, ptr %10, align 4
  call void @llvm.lifetime.end.p0(i64 8, ptr %11) #8
  call void @llvm.lifetime.end.p0(i64 4, ptr %8) #8
  call void @llvm.lifetime.end.p0(i64 8, ptr %7) #8
  %107 = load { double, double }, ptr %4, align 8
  ret { double, double } %107

108:                                              ; preds = %65
  unreachable
}