; Function Attrs: mustprogress uwtable
define internal { double, double } @_ZL16fouc_s_s_inverse5PJ_XYP8PJconsts(double %0, double %1, ptr noundef readonly captures(none) %2) #0 {
  %4 = getelementptr inbounds nuw i8, ptr %2, i64 88
  %5 = load ptr, ptr %4, align 8, !tbaa !3
  %6 = load double, ptr %5, align 8, !tbaa !38
  %7 = fcmp une double %6, 0.000000e+00
  br i1 %7, label %.preheader, label %26

.preheader:                                       ; preds = %3
  %8 = getelementptr inbounds nuw i8, ptr %5, i64 8
  %9 = load double, ptr %8, align 8, !tbaa !40
  br label %12

10:                                               ; preds = %12
  %11 = add nsw i32 %.02426, -1
  %.not = icmp eq i32 %11, 0
  br i1 %.not, label %23, label %12, !llvm.loop !49

12:                                               ; preds = %.preheader, %10
  %.sroa.3.027 = phi double [ %1, %.preheader ], [ %20, %10 ]
  %.02426 = phi i32 [ 10, %.preheader ], [ %11, %10 ]
  %13 = tail call double @sin(double noundef %.sroa.3.027) #7, !tbaa !51
  %14 = fmul double %9, %13
  %15 = tail call double @llvm.fmuladd.f64(double %6, double %.sroa.3.027, double %14)
  %16 = fsub double %15, %1
  %17 = tail call double @cos(double noundef %.sroa.3.027) #7, !tbaa !51
  %18 = tail call double @llvm.fmuladd.f64(double %9, double %17, double %6)
  %19 = fdiv double %16, %18
  %20 = fsub double %.sroa.3.027, %19
  %21 = tail call double @llvm.fabs.f64(double %19)
  %22 = fcmp olt double %21, 0x3E7AD7F29ABCAF48
  br i1 %22, label %.loopexit, label %10

23:                                               ; preds = %10
  %24 = fcmp olt double %1, 0.000000e+00
  %25 = select i1 %24, double 0xBFF921FB54442D18, double 0x3FF921FB54442D18
  br label %.loopexit

26:                                               ; preds = %3
  %27 = load ptr, ptr %2, align 8, !tbaa !36
  %28 = tail call noundef double @_Z5aasinP6pj_ctxd(ptr noundef %27, double noundef %1)
  %.pre = load double, ptr %5, align 8, !tbaa !38
  %.phi.trans.insert = getelementptr inbounds nuw i8, ptr %5, i64 8
  %.pre29 = load double, ptr %.phi.trans.insert, align 8, !tbaa !40
  br label %.loopexit

.loopexit:                                        ; preds = %12, %23, %26
  %29 = phi double [ %9, %23 ], [ %.pre29, %26 ], [ %9, %12 ]
  %30 = phi double [ %6, %23 ], [ %.pre, %26 ], [ %6, %12 ]
  %.sroa.3.2 = phi double [ %25, %23 ], [ %28, %26 ], [ %20, %12 ]
  %31 = tail call double @cos(double noundef %.sroa.3.2) #7, !tbaa !51
  %32 = tail call double @llvm.fmuladd.f64(double %29, double %31, double %30)
  %33 = fmul double %0, %32
  %34 = fdiv double %33, %31
  %.fca.0.insert = insertvalue { double, double } poison, double %34, 0
  %.fca.1.insert = insertvalue { double, double } %.fca.0.insert, double %.sroa.3.2, 1
  ret { double, double } %.fca.1.insert
}